; Function Attrs: nounwind uwtable
define ptr @frame_data_c(ptr noundef %0) local_unnamed_addr #0 {
  %2 = getelementptr inbounds nuw i8, ptr %0, i64 336
  %3 = tail call fastcc i32 @frame_data_ensure(ptr noundef nonnull %2, i32 noundef 0)
  %4 = icmp slt i32 %3, 0
  br i1 %4, label %9, label %5

5:                                                ; preds = %1
  %6 = load ptr, ptr %2, align 8, !tbaa !71
  %7 = getelementptr inbounds nuw i8, ptr %6, i64 8
  %8 = load ptr, ptr %7, align 8, !tbaa !79
  br label %9

9:                                                ; preds = %1, %5
  %10 = phi ptr [ %8, %5 ], [ null, %1 ]
  ret ptr %10
}